target datalayout = "e-m:e-p270:32:32-p271:32:32-p272:64:64-i64:64-i128:128-f80:128-n8:16:32:64-S128"
target triple = "x86_64-pc-linux-gnu"

%class.Semaphore = type { %class.PosixSemaphore }
%class.PosixSemaphore = type { %union.sem_t }
%union.sem_t = type { i64, [24 x i8] }
%class.ConfigurationLock = type { i8 }

@_ZN16LogConfiguration19_listener_callbacksE = hidden global ptr null, align 8
@_ZN16LogConfiguration21_n_listener_callbacksE = hidden global i64 0, align 8
@_ZN17ConfigurationLock10_semaphoreE = hidden global %class.Semaphore zeroinitializer, align 8

; Function Attrs: mustprogress nounwind uwtable
define linkonce_odr hidden void @_ZN9Semaphore6signalEj(ptr noundef nonnull align 8 dereferenceable(32) %0, i32 noundef %1) #1 comdat align 2 {
  %3 = alloca ptr, align 8
  %4 = alloca i32, align 4
  store ptr %0, ptr %3, align 8
  store i32 %1, ptr %4, align 4
  %5 = load ptr, ptr %3, align 8
  %6 = getelementptr inbounds %class.Semaphore, ptr %5, i32 0, i32 0
  %7 = load i32, ptr %4, align 4
  call void @_ZN14PosixSemaphore6signalEj(ptr noundef nonnull align 8 dereferenceable(32) %6, i32 noundef %7)
  ret void
}

; Function Attrs: mustprogress nounwind uwtable
define linkonce_odr hidden void @_ZN9Semaphore4waitEv(ptr noundef nonnull align 8 dereferenceable(32) %0) #1 comdat align 2 {
  %2 = alloca ptr, align 8
  store ptr %0, ptr %2, align 8
  %3 = load ptr, ptr %2, align 8
  %4 = getelementptr inbounds %class.Semaphore, ptr %3, i32 0, i32 0
  call void @_ZN14PosixSemaphore4waitEv(ptr noundef nonnull align 8 dereferenceable(32) %4)
  ret void
}

; Function Attrs: mustprogress nounwind uwtable
define linkonce_odr hidden void @_ZN17ConfigurationLockD2Ev(ptr noundef nonnull align 1 dereferenceable(1) %0) unnamed_addr #1 comdat align 2 {
  %2 = alloca ptr, align 8
  store ptr %0, ptr %2, align 8
  call void @_ZN9Semaphore6signalEj(ptr noundef nonnull align 8 dereferenceable(32) @_ZN17ConfigurationLock10_semaphoreE, i32 noundef 1)
  ret void
}

; Function Attrs: mustprogress nounwind uwtable
define linkonce_odr hidden void @_ZN17ConfigurationLockC2Ev(ptr noundef nonnull align 1 dereferenceable(1) %0) unnamed_addr #1 comdat align 2 {
  %2 = alloca ptr, align 8
  store ptr %0, ptr %2, align 8
  call void @_ZN9Semaphore4waitEv(ptr noundef nonnull align 8 dereferenceable(32) @_ZN17ConfigurationLock10_semaphoreE)
  ret void
}

; Function Attrs: mustprogress nounwind uwtable
define hidden void @_ZN16LogConfiguration24register_update_listenerEPFvvE(ptr noundef %0) #1 align 2 {
  %2 = alloca ptr, align 8
  %3 = alloca %class.ConfigurationLock, align 1
  %4 = alloca i64, align 8
  store ptr %0, ptr %2, align 8
  call void @_ZN17ConfigurationLockC2Ev(ptr noundef nonnull align 1 dereferenceable(1) %3)
  %5 = load i64, ptr @_ZN16LogConfiguration21_n_listener_callbacksE, align 8
  %6 = add i64 %5, 1
  store i64 %6, ptr @_ZN16LogConfiguration21_n_listener_callbacksE, align 8
  store i64 %5, ptr %4, align 8
  %7 = load ptr, ptr @_ZN16LogConfiguration19_listener_callbacksE, align 8
  %8 = load i64, ptr @_ZN16LogConfiguration21_n_listener_callbacksE, align 8
  %9 = mul i64 %8, 8
  %10 = call noundef ptr @_Z14ReallocateHeapPcm8MEMFLAGSN17AllocFailStrategy13AllocFailEnumE(ptr noundef %7, i64 noundef %9, i8 noundef zeroext 17, i32 noundef 0)
  store ptr %10, ptr @_ZN16LogConfiguration19_listener_callbacksE, align 8
  %11 = load ptr, ptr %2, align 8
  %12 = load ptr, ptr @_ZN16LogConfiguration19_listener_callbacksE, align 8
  %13 = load i64, ptr %4, align 8
  %14 = getelementptr inbounds ptr, ptr %12, i64 %13
  store ptr %11, ptr %14, align 8
  call void @_ZN17ConfigurationLockD2Ev(ptr noundef nonnull align 1 dereferenceable(1) %3) #2
  ret void
}