; Function Attrs: mustprogress nounwind uwtable
define hidden void @_ZN16LogConfiguration24register_update_listenerEPFvvE(ptr noundef %0) local_unnamed_addr #0 align 2 {
  tail call void @_ZN14PosixSemaphore4waitEv(ptr noundef nonnull align 8 dereferenceable(32) @_ZN17ConfigurationLock10_semaphoreE) #11
  %2 = load i64, ptr @_ZN16LogConfiguration21_n_listener_callbacksE, align 8
  %3 = add i64 %2, 1
  store i64 %3, ptr @_ZN16LogConfiguration21_n_listener_callbacksE, align 8
  %4 = load ptr, ptr @_ZN16LogConfiguration19_listener_callbacksE, align 8
  %5 = shl i64 %3, 3
  %6 = tail call noundef ptr @_Z14ReallocateHeapPcm8MEMFLAGSN17AllocFailStrategy13AllocFailEnumE(ptr noundef %4, i64 noundef %5, i8 noundef zeroext 17, i32 noundef 0) #11
  store ptr %6, ptr @_ZN16LogConfiguration19_listener_callbacksE, align 8
  %7 = getelementptr inbounds ptr, ptr %6, i64 %2
  store ptr %0, ptr %7, align 8
  tail call void @_ZN14PosixSemaphore6signalEj(ptr noundef nonnull align 8 dereferenceable(32) @_ZN17ConfigurationLock10_semaphoreE, i32 noundef 1) #11
  ret void
}